target datalayout = "e-m:e-p270:32:32-p271:32:32-p272:64:64-i64:64-i128:128-f80:128-n8:16:32:64-S128"
target triple = "x86_64-unknown-linux-gnu"

%"struct.OpenImageIO_v2_6_0::TypeDesc" = type { i8, i8, i8, i8, i32 }
%"class.OpenImageIO_v2_6_0::basic_string_view" = type { ptr, i64 }
%"class.OpenImageIO_v2_6_0::ImageSpec" = type { i32, i32, i32, i32, i32, i32, i32, i32, i32, i32, i32, i32, i32, i32, i32, i32, %"struct.OpenImageIO_v2_6_0::TypeDesc", %"class.std::vector", %"class.std::vector.4", i32, i32, i8, %"class.OpenImageIO_v2_6_0::ParamValueList" }
%"class.std::vector" = type { %"struct.std::_Vector_base" }
%"struct.std::_Vector_base" = type { %"struct.std::_Vector_base<OpenImageIO_v2_6_0::TypeDesc, std::allocator<OpenImageIO_v2_6_0::TypeDesc>>::_Vector_impl" }
%"struct.std::_Vector_base<OpenImageIO_v2_6_0::TypeDesc, std::allocator<OpenImageIO_v2_6_0::TypeDesc>>::_Vector_impl" = type { %"struct.std::_Vector_base<OpenImageIO_v2_6_0::TypeDesc, std::allocator<OpenImageIO_v2_6_0::TypeDesc>>::_Vector_impl_data" }
%"struct.std::_Vector_base<OpenImageIO_v2_6_0::TypeDesc, std::allocator<OpenImageIO_v2_6_0::TypeDesc>>::_Vector_impl_data" = type { ptr, ptr, ptr }
%"class.std::vector.4" = type { %"struct.std::_Vector_base.5" }
%"struct.std::_Vector_base.5" = type { %"struct.std::_Vector_base<std::__cxx11::basic_string<char>, std::allocator<std::__cxx11::basic_string<char>>>::_Vector_impl" }
%"struct.std::_Vector_base<std::__cxx11::basic_string<char>, std::allocator<std::__cxx11::basic_string<char>>>::_Vector_impl" = type { %"struct.std::_Vector_base<std::__cxx11::basic_string<char>, std::allocator<std::__cxx11::basic_string<char>>>::_Vector_impl_data" }
%"struct.std::_Vector_base<std::__cxx11::basic_string<char>, std::allocator<std::__cxx11::basic_string<char>>>::_Vector_impl_data" = type { ptr, ptr, ptr }
%"class.OpenImageIO_v2_6_0::ParamValueList" = type { %"class.std::vector.9" }
%"class.std::vector.9" = type { %"struct.std::_Vector_base.10" }
%"struct.std::_Vector_base.10" = type { %"struct.std::_Vector_base<OpenImageIO_v2_6_0::ParamValue, std::allocator<OpenImageIO_v2_6_0::ParamValue>>::_Vector_impl" }
%"struct.std::_Vector_base<OpenImageIO_v2_6_0::ParamValue, std::allocator<OpenImageIO_v2_6_0::ParamValue>>::_Vector_impl" = type { %"struct.std::_Vector_base<OpenImageIO_v2_6_0::ParamValue, std::allocator<OpenImageIO_v2_6_0::ParamValue>>::_Vector_impl_data" }
%"struct.std::_Vector_base<OpenImageIO_v2_6_0::ParamValue, std::allocator<OpenImageIO_v2_6_0::ParamValue>>::_Vector_impl_data" = type { ptr, ptr, ptr }
%"class.OpenImageIO_v2_6_0::FilterDesc" = type { ptr, i32, float, i8, i8, i8 }

@.str.180 = private unnamed_addr constant [9 x i8] c"lanczos3\00", align 1
@.str.271 = private unnamed_addr constant [16 x i8] c"blackman-harris\00", align 1

; Function Attrs: mustprogress nounwind uwtable
define linkonce_odr hidden void @_ZN18OpenImageIO_v2_6_017basic_string_viewIcSt11char_traitsIcEEC2ERKNSt7__cxx1112basic_stringIcS2_SaIcEEE(ptr noundef nonnull align 8 dereferenceable(16) %this, ptr noundef nonnull align 8 dereferenceable(32) %str) unnamed_addr #4 comdat align 2 {
entry:
  %this.addr = alloca ptr, align 8
  %str.addr = alloca ptr, align 8
  store ptr %this, ptr %this.addr, align 8
  store ptr %str, ptr %str.addr, align 8
  %this1 = load ptr, ptr %this.addr, align 8
  %m_chars = getelementptr inbounds %"class.OpenImageIO_v2_6_0::basic_string_view", ptr %this1, i32 0, i32 0
  %0 = load ptr, ptr %str.addr, align 8
  %call = call noundef ptr @_ZNKSt7__cxx1112basic_stringIcSt11char_traitsIcESaIcEE4dataEv(ptr noundef nonnull align 8 dereferenceable(32) %0) #3
  store ptr %call, ptr %m_chars, align 8
  %m_len = getelementptr inbounds %"class.OpenImageIO_v2_6_0::basic_string_view", ptr %this1, i32 0, i32 1
  %1 = load ptr, ptr %str.addr, align 8
  %call2 = call noundef i64 @_ZNKSt7__cxx1112basic_stringIcSt11char_traitsIcESaIcEE4sizeEv(ptr noundef nonnull align 8 dereferenceable(32) %1) #3
  store i64 %call2, ptr %m_len, align 8
  ret void
}

; Function Attrs: mustprogress nounwind uwtable
define linkonce_odr noundef zeroext i1 @_ZSteqIcSt11char_traitsIcESaIcEEbRKNSt7__cxx1112basic_stringIT_T0_T1_EEPKS5_(ptr noundef nonnull align 8 dereferenceable(32) %__lhs, ptr noundef %__rhs) #4 comdat {
entry:
  %__lhs.addr = alloca ptr, align 8
  %__rhs.addr = alloca ptr, align 8
  store ptr %__lhs, ptr %__lhs.addr, align 8
  store ptr %__rhs, ptr %__rhs.addr, align 8
  %0 = load ptr, ptr %__lhs.addr, align 8
  %1 = load ptr, ptr %__rhs.addr, align 8
  %call = call noundef i32 @_ZNKSt7__cxx1112basic_stringIcSt11char_traitsIcESaIcEE7compareEPKc(ptr noundef nonnull align 8 dereferenceable(32) %0, ptr noundef %1) #3
  %cmp = icmp eq i32 %call, 0
  ret i1 %cmp
}

; Function Attrs: mustprogress nounwind uwtable
define linkonce_odr noundef nonnull align 4 dereferenceable(4) ptr @_ZSt3maxIfERKT_S2_S2_(ptr noundef nonnull align 4 dereferenceable(4) %__a, ptr noundef nonnull align 4 dereferenceable(4) %__b) #4 comdat {
entry:
  %retval = alloca ptr, align 8
  %__a.addr = alloca ptr, align 8
  %__b.addr = alloca ptr, align 8
  store ptr %__a, ptr %__a.addr, align 8
  store ptr %__b, ptr %__b.addr, align 8
  %0 = load ptr, ptr %__a.addr, align 8
  %1 = load float, ptr %0, align 4
  %2 = load ptr, ptr %__b.addr, align 8
  %3 = load float, ptr %2, align 4
  %cmp = fcmp olt float %1, %3
  br i1 %cmp, label %if.then, label %if.end

if.then:                                          ; preds = %entry
  %4 = load ptr, ptr %__b.addr, align 8
  store ptr %4, ptr %retval, align 8
  br label %return

if.end:                                           ; preds = %entry
  %5 = load ptr, ptr %__a.addr, align 8
  store ptr %5, ptr %retval, align 8
  br label %return

return:                                           ; preds = %if.end, %if.then
  %6 = load ptr, ptr %retval, align 8
  ret ptr %6
}

; Function Attrs: mustprogress uwtable
define internal noundef ptr @_ZL12setup_filterRKN18OpenImageIO_v2_6_09ImageSpecES2_NSt7__cxx1112basic_stringIcSt11char_traitsIcESaIcEEE(ptr noundef nonnull align 8 dereferenceable(160) %dstspec, ptr noundef nonnull align 8 dereferenceable(160) %srcspec, ptr noundef %filtername) #6 {
entry:
  %retval = alloca ptr, align 8
  %dstspec.addr = alloca ptr, align 8
  %srcspec.addr = alloca ptr, align 8
  %filtername.indirect_addr = alloca ptr, align 8
  %wratio = alloca float, align 4
  %hratio = alloca float, align 4
  %w = alloca float, align 4
  %ref.tmp = alloca float, align 4
  %h = alloca float, align 4
  %ref.tmp7 = alloca float, align 4
  %i = alloca i32, align 4
  %e = alloca i32, align 4
  %d = alloca %"class.OpenImageIO_v2_6_0::FilterDesc", align 8
  %agg.tmp = alloca %"class.OpenImageIO_v2_6_0::basic_string_view", align 8
  store ptr %dstspec, ptr %dstspec.addr, align 8
  store ptr %srcspec, ptr %srcspec.addr, align 8
  store ptr %filtername, ptr %filtername.indirect_addr, align 8
  %0 = load ptr, ptr %dstspec.addr, align 8
  %full_width = getelementptr inbounds %"class.OpenImageIO_v2_6_0::ImageSpec", ptr %0, i32 0, i32 9
  %1 = load i32, ptr %full_width, align 4
  %conv = sitofp i32 %1 to float
  %2 = load ptr, ptr %srcspec.addr, align 8
  %full_width1 = getelementptr inbounds %"class.OpenImageIO_v2_6_0::ImageSpec", ptr %2, i32 0, i32 9
  %3 = load i32, ptr %full_width1, align 4
  %conv2 = sitofp i32 %3 to float
  %div = fdiv float %conv, %conv2
  store float %div, ptr %wratio, align 4
  %4 = load ptr, ptr %dstspec.addr, align 8
  %full_height = getelementptr inbounds %"class.OpenImageIO_v2_6_0::ImageSpec", ptr %4, i32 0, i32 10
  %5 = load i32, ptr %full_height, align 8
  %conv3 = sitofp i32 %5 to float
  %6 = load ptr, ptr %srcspec.addr, align 8
  %full_height4 = getelementptr inbounds %"class.OpenImageIO_v2_6_0::ImageSpec", ptr %6, i32 0, i32 10
  %7 = load i32, ptr %full_height4, align 8
  %conv5 = sitofp i32 %7 to float
  %div6 = fdiv float %conv3, %conv5
  store float %div6, ptr %hratio, align 4
  store float 1.000000e+00, ptr %ref.tmp, align 4
  %call = call noundef nonnull align 4 dereferenceable(4) ptr @_ZSt3maxIfERKT_S2_S2_(ptr noundef nonnull align 4 dereferenceable(4) %ref.tmp, ptr noundef nonnull align 4 dereferenceable(4) %wratio)
  %8 = load float, ptr %call, align 4
  store float %8, ptr %w, align 4
  store float 1.000000e+00, ptr %ref.tmp7, align 4
  %call8 = call noundef nonnull align 4 dereferenceable(4) ptr @_ZSt3maxIfERKT_S2_S2_(ptr noundef nonnull align 4 dereferenceable(4) %ref.tmp7, ptr noundef nonnull align 4 dereferenceable(4) %hratio)
  %9 = load float, ptr %call8, align 4
  store float %9, ptr %h, align 4
  %call9 = call noundef zeroext i1 @_ZNKSt7__cxx1112basic_stringIcSt11char_traitsIcESaIcEE5emptyEv(ptr noundef nonnull align 8 dereferenceable(32) %filtername) #3
  br i1 %call9, label %if.then, label %if.end14

if.then:                                          ; preds = %entry
  %10 = load float, ptr %wratio, align 4
  %cmp = fcmp ogt float %10, 1.000000e+00
  br i1 %cmp, label %if.then11, label %lor.lhs.false

lor.lhs.false:                                    ; preds = %if.then
  %11 = load float, ptr %hratio, align 4
  %cmp10 = fcmp ogt float %11, 1.000000e+00
  br i1 %cmp10, label %if.then11, label %if.else

if.then11:                                        ; preds = %lor.lhs.false, %if.then
  %call12 = call noundef nonnull align 8 dereferenceable(32) ptr @_ZNSt7__cxx1112basic_stringIcSt11char_traitsIcESaIcEEaSEPKc(ptr noundef nonnull align 8 dereferenceable(32) %filtername, ptr noundef @.str.271)
  br label %if.end

if.else:                                          ; preds = %lor.lhs.false
  %call13 = call noundef nonnull align 8 dereferenceable(32) ptr @_ZNSt7__cxx1112basic_stringIcSt11char_traitsIcESaIcEEaSEPKc(ptr noundef nonnull align 8 dereferenceable(32) %filtername, ptr noundef @.str.180)
  br label %if.end

if.end:                                           ; preds = %if.else, %if.then11
  br label %if.end14

if.end14:                                         ; preds = %if.end, %entry
  store i32 0, ptr %i, align 4
  %call15 = call noundef i32 @_ZN18OpenImageIO_v2_6_08Filter2D11num_filtersEv()
  store i32 %call15, ptr %e, align 4
  br label %for.cond

for.cond:                                         ; preds = %for.inc, %if.end14
  %12 = load i32, ptr %i, align 4
  %13 = load i32, ptr %e, align 4
  %cmp16 = icmp slt i32 %12, %13
  br i1 %cmp16, label %for.body, label %for.end

for.body:                                         ; preds = %for.cond
  %14 = load i32, ptr %i, align 4
  call void @_ZN18OpenImageIO_v2_6_08Filter2D14get_filterdescEiPNS_10FilterDescE(i32 noundef %14, ptr noundef %d)
  %name = getelementptr inbounds %"class.OpenImageIO_v2_6_0::FilterDesc", ptr %d, i32 0, i32 0
  %15 = load ptr, ptr %name, align 8
  %call17 = call noundef zeroext i1 @_ZSteqIcSt11char_traitsIcESaIcEEbRKNSt7__cxx1112basic_stringIT_T0_T1_EEPKS5_(ptr noundef nonnull align 8 dereferenceable(32) %filtername, ptr noundef %15)
  br i1 %call17, label %if.then18, label %if.end22

if.then18:                                        ; preds = %for.body
  call void @_ZN18OpenImageIO_v2_6_017basic_string_viewIcSt11char_traitsIcEEC2ERKNSt7__cxx1112basic_stringIcS2_SaIcEEE(ptr noundef nonnull align 8 dereferenceable(16) %agg.tmp, ptr noundef nonnull align 8 dereferenceable(32) %filtername) #3
  %16 = load float, ptr %w, align 4
  %width = getelementptr inbounds %"class.OpenImageIO_v2_6_0::FilterDesc", ptr %d, i32 0, i32 2
  %17 = load float, ptr %width, align 4
  %mul = fmul float %16, %17
  %18 = load float, ptr %h, align 4
  %width19 = getelementptr inbounds %"class.OpenImageIO_v2_6_0::FilterDesc", ptr %d, i32 0, i32 2
  %19 = load float, ptr %width19, align 4
  %mul20 = fmul float %18, %19
  %call21 = call noundef ptr @_ZN18OpenImageIO_v2_6_08Filter2D6createENS_17basic_string_viewIcSt11char_traitsIcEEEff(ptr noundef %agg.tmp, float noundef %mul, float noundef %mul20)
  store ptr %call21, ptr %retval, align 8
  br label %return

if.end22:                                         ; preds = %for.body
  br label %for.inc

for.inc:                                          ; preds = %if.end22
  %20 = load i32, ptr %i, align 4
  %inc = add nsw i32 %20, 1
  store i32 %inc, ptr %i, align 4
  br label %for.cond, !llvm.loop !118

for.end:                                          ; preds = %for.cond
  store ptr null, ptr %retval, align 8
  br label %return

return:                                           ; preds = %for.end, %if.then18
  %21 = load ptr, ptr %retval, align 8
  ret ptr %21
}