; Function Attrs: mustprogress uwtable
define internal fastcc noundef ptr @_ZL12setup_filterRKN18OpenImageIO_v2_6_09ImageSpecES2_NSt7__cxx1112basic_stringIcSt11char_traitsIcESaIcEEE(i32 %dstspec.36.val, i32 %dstspec.40.val, i32 %srcspec.36.val, i32 %srcspec.40.val, ptr noundef nonnull %filtername) unnamed_addr #5 {
entry:
  %d = alloca %"class.OpenImageIO_v2_6_0::FilterDesc", align 8
  %agg.tmp = alloca %"class.OpenImageIO_v2_6_0::basic_string_view", align 8
  %conv = sitofp i32 %dstspec.36.val to float
  %conv2 = sitofp i32 %srcspec.36.val to float
  %div = fdiv float %conv, %conv2
  %conv3 = sitofp i32 %dstspec.40.val to float
  %conv5 = sitofp i32 %srcspec.40.val to float
  %div6 = fdiv float %conv3, %conv5
  %cmp.i = fcmp ogt float %div, 1.000000e+00
  %.sroa.speculated2 = select i1 %cmp.i, float %div, float 1.000000e+00
  %cmp.i5 = fcmp ogt float %div6, 1.000000e+00
  %.sroa.speculated = select i1 %cmp.i5, float %div6, float 1.000000e+00
  %call9 = tail call noundef zeroext i1 @_ZNKSt7__cxx1112basic_stringIcSt11char_traitsIcESaIcEE5emptyEv(ptr noundef nonnull align 8 dereferenceable(32) %filtername) #21
  br i1 %call9, label %if.then, label %if.end14

if.then:                                          ; preds = %entry
  %or.cond = select i1 %cmp.i, i1 true, i1 %cmp.i5
  %.str.271..str.180 = select i1 %or.cond, ptr @.str.271, ptr @.str.180
  %call12 = tail call noundef nonnull align 8 dereferenceable(32) ptr @_ZNSt7__cxx1112basic_stringIcSt11char_traitsIcESaIcEEaSEPKc(ptr noundef nonnull align 8 dereferenceable(32) %filtername, ptr noundef nonnull %.str.271..str.180)
  br label %if.end14

if.end14:                                         ; preds = %if.then, %entry
  %call15 = tail call noundef i32 @_ZN18OpenImageIO_v2_6_08Filter2D11num_filtersEv()
  %cmp165 = icmp sgt i32 %call15, 0
  br i1 %cmp165, label %for.body, label %return

for.cond:                                         ; preds = %for.body
  %inc = add nuw nsw i32 %i.06, 1
  %exitcond.not = icmp eq i32 %inc, %call15
  br i1 %exitcond.not, label %return, label %for.body, !llvm.loop !418

for.body:                                         ; preds = %if.end14, %for.cond
  %i.06 = phi i32 [ %inc, %for.cond ], [ 0, %if.end14 ]
  call void @_ZN18OpenImageIO_v2_6_08Filter2D14get_filterdescEiPNS_10FilterDescE(i32 noundef %i.06, ptr noundef nonnull %d)
  %0 = load ptr, ptr %d, align 8
  %call.i = call noundef i32 @_ZNKSt7__cxx1112basic_stringIcSt11char_traitsIcESaIcEE7compareEPKc(ptr noundef nonnull align 8 dereferenceable(32) %filtername, ptr noundef %0) #21
  %cmp.i7 = icmp eq i32 %call.i, 0
  br i1 %cmp.i7, label %if.then18, label %for.cond

if.then18:                                        ; preds = %for.body
  %call.i8 = call noundef ptr @_ZNKSt7__cxx1112basic_stringIcSt11char_traitsIcESaIcEE4dataEv(ptr noundef nonnull align 8 dereferenceable(32) %filtername) #21
  store ptr %call.i8, ptr %agg.tmp, align 8
  %m_len.i = getelementptr inbounds i8, ptr %agg.tmp, i64 8
  %call2.i = call noundef i64 @_ZNKSt7__cxx1112basic_stringIcSt11char_traitsIcESaIcEE4sizeEv(ptr noundef nonnull align 8 dereferenceable(32) %filtername) #21
  store i64 %call2.i, ptr %m_len.i, align 8
  %width = getelementptr inbounds i8, ptr %d, i64 12
  %1 = load float, ptr %width, align 4
  %mul = fmul float %.sroa.speculated2, %1
  %mul20 = fmul float %.sroa.speculated, %1
  %call21 = call noundef ptr @_ZN18OpenImageIO_v2_6_08Filter2D6createENS_17basic_string_viewIcSt11char_traitsIcEEEff(ptr noundef nonnull %agg.tmp, float noundef %mul, float noundef %mul20)
  br label %return

return:                                           ; preds = %for.cond, %if.end14, %if.then18
  %retval.0 = phi ptr [ %call21, %if.then18 ], [ null, %if.end14 ], [ null, %for.cond ]
  ret ptr %retval.0
}